Certificate:
    Data:
        Version: 3 (0x2)
        Serial Number: 4097 (0x1001)
        Signature Algorithm: ecdsa-with-SHA256
        Issuer: CN=CA, O=ARMY, OU=AM, L=LISBON, ST=LISBON, C=PT/emailAddress=ca@example.com
        Validity
            Not Before: Sep 18 11:48:30 2025 GMT
            Not After : Sep 18 11:48:30 2026 GMT
        Subject: C=PT, ST=LISBON, L=LISBON, O=ARMY, OU=AM, CN=2CMD1/emailAddress=TOMASREBOLO2001@HOTMAIL.COM
        Subject Public Key Info:
            Public Key Algorithm: id-ecPublicKey
                Public-Key: (256 bit)
                pub:
                    04:99:d8:73:03:09:8f:4c:34:57:27:81:69:41:5d:
                    d5:36:3f:47:6a:5e:a7:fe:b4:cd:be:d7:cd:da:fc:
                    1b:f6:50:36:18:8b:3e:ba:8f:f0:4b:51:fa:60:ea:
                    45:0b:bd:3f:c8:2c:d9:d8:a7:88:5a:e9:af:ed:f0:
                    87:f5:37:2a:7c
                ASN1 OID: prime256v1
                NIST CURVE: P-256
        X509v3 extensions:
            X509v3 Key Usage: critical
                Digital Signature, Key Agreement
            X509v3 Extended Key Usage: 
                TLS Web Server Authentication, TLS Web Client Authentication
            X509v3 Subject Alternative Name: 
                IP Address:10.10.10.20, IP Address:10.10.20.20, IP Address:10.10.30.20, IP Address:172.18.6.212, IP Address:172.18.6.253, IP Address:172.18.8.24, IP Address:172.18.28.162, IP Address:172.18.17.175, IP Address:172.18.8.216, IP Address:192.168.1.58, IP Address:192.168.1.242, IP Address:172.18.8.229
            X509v3 Subject Key Identifier: 
                76:B5:91:4A:4B:4A:4F:1D:09:E6:61:9B:4C:40:EC:9E:85:BD:E2:46
            X509v3 Authority Key Identifier: 
                42:28:BD:75:0B:39:D6:1C:3A:0D:68:D4:D3:8F:95:41:EA:67:93:3E
    Signature Algorithm: ecdsa-with-SHA256
    Signature Value:
        30:45:02:21:00:8a:1d:00:e6:67:d5:71:c3:cd:bc:c1:1a:e7:
        ea:2c:de:69:f4:08:63:23:84:34:ab:7e:8c:19:f1:b0:e2:06:
        d5:02:20:57:ee:9d:56:a0:1d:56:8c:d2:2b:fc:96:a6:ec:f9:
        14:81:3d:75:d9:62:14:b1:04:cd:ff:2b:a6:c9:77:e7:28
-----BEGIN CERTIFICATE-----
MIICtTCCAlugAwIBAgICEAEwCgYIKoZIzj0EAwIwdzELMAkGA1UEAwwCQ0ExDTAL
BgNVBAoMBEFSTVkxCzAJBgNVBAsMAkFNMQ8wDQYDVQQHDAZMSVNCT04xDzANBgNV
BAgMBkxJU0JPTjELMAkGA1UEBhMCUFQxHTAbBgkqhkiG9w0BCQEWDmNhQGV4YW1w
bGUuY29tMB4XDTI1MDkxODExNDgzMFoXDTI2MDkxODExNDgzMFowgYcxCzAJBgNV
BAYTAlBUMQ8wDQYDVQQIDAZMSVNCT04xDzANBgNVBAcMBkxJU0JPTjENMAsGA1UE
CgwEQVJNWTELMAkGA1UECwwCQU0xDjAMBgNVBAMMBTJDTUQxMSowKAYJKoZIhvcN
AQkBFhtUT01BU1JFQk9MTzIwMDFASE9UTUFJTC5DT00wWTATBgcqhkjOPQIBBggq
hkjOPQMBBwNCAASZ2HMDCY9MNFcngWlBXdU2P0dqXqf+tM2+183a/Bv2UDYYiz66
j/BLUfpg6kULvT/ILNnYp4ha6a/t8If1Nyp8o4HFMIHCMA4GA1UdDwEB/wQEAwID
iDAdBgNVHSUEFjAUBggrBgEFBQcDAQYIKwYBBQUHAwIwUQYDVR0RBEowSIcECgoK
FIcECgoUFIcECgoeFIcErBIG1IcErBIG/YcErBIIGIcErBIcoocErBIRr4cErBII
2IcEwKgBOocEwKgB8ocErBII5TAdBgNVHQ4EFgQUdrWRSktKTx0J5mGbTEDsnoW9
4kYwHwYDVR0jBBgwFoAUQii9dQs51hw6DWjU04+VQepnkz4wCgYIKoZIzj0EAwID
SAAwRQIhAIodAOZn1XHDzbzBGufqLN5p9AhjI4Q0q36MGfGw4gbVAiBX7p1WoB1W
jNIr/Jam7PkUgT112WIUsQTN/yumyXfnKA==
-----END CERTIFICATE-----
