Certificate:
    Data:
        Version: 3 (0x2)
        Serial Number: 4096 (0x1000)
        Signature Algorithm: ecdsa-with-SHA256
        Issuer: CN=CA, O=ARMY, OU=AM, L=LISBON, ST=LISBON, C=PT/emailAddress=ca@example.com
        Validity
            Not Before: Nov 26 21:18:47 2025 GMT
            Not After : Nov 26 21:18:47 2026 GMT
        Subject: C=PT, ST=LISBON, L=LISBON, O=ARMY, OU=AM, CN=CMD/emailAddress=TOMASREBOLO2001@HOTMAIL.COM
        Subject Public Key Info:
            Public Key Algorithm: id-ecPublicKey
                Public-Key: (256 bit)
                pub:
                    04:b6:64:8f:7d:08:f2:d6:01:c5:d5:e5:6f:e5:72:
                    e4:28:c4:b5:33:ec:dc:ad:98:70:cb:37:dc:23:27:
                    e1:49:18:6f:8d:62:2c:29:91:98:99:da:14:d5:4f:
                    58:11:92:01:c7:d4:07:05:14:ce:ed:f7:5d:c7:f9:
                    ce:63:5e:b8:e4
                ASN1 OID: prime256v1
                NIST CURVE: P-256
        X509v3 extensions:
            X509v3 Key Usage: critical
                Digital Signature, Key Agreement
            X509v3 Extended Key Usage: 
                TLS Web Server Authentication, TLS Web Client Authentication
            X509v3 Subject Alternative Name: 
                IP Address:10.10.10.20, IP Address:10.10.20.20, IP Address:10.10.30.20, IP Address:172.18.6.212, IP Address:172.18.6.253, IP Address:172.18.8.24, IP Address:172.18.28.162, IP Address:172.18.17.175, IP Address:172.18.8.216, IP Address:192.168.1.58, IP Address:192.168.1.242, IP Address:172.18.8.229, IP Address:172.16.193.202
            X509v3 Subject Key Identifier: 
                7C:A4:83:37:02:0A:A3:AE:26:60:F4:C7:C8:8C:43:29:08:09:CB:E4
            X509v3 Authority Key Identifier: 
                65:9A:36:B1:B1:9F:AB:7C:70:06:3E:4D:42:22:0B:EF:D3:19:23:6D
    Signature Algorithm: ecdsa-with-SHA256
    Signature Value:
        30:44:02:20:02:00:ef:15:44:c2:41:0b:b5:25:c5:4f:69:4b:
        f7:55:d1:ca:29:e9:ef:a3:06:34:5d:9c:84:c9:bb:5a:5a:a2:
        02:20:53:28:2b:5b:e6:2b:9e:e6:f1:32:ff:6b:30:62:a9:b7:
        0e:b4:77:b8:97:fb:64:b8:36:b5:f7:06:8e:ff:50:51
-----BEGIN CERTIFICATE-----
MIICuDCCAl+gAwIBAgICEAAwCgYIKoZIzj0EAwIwdzELMAkGA1UEAwwCQ0ExDTAL
BgNVBAoMBEFSTVkxCzAJBgNVBAsMAkFNMQ8wDQYDVQQHDAZMSVNCT04xDzANBgNV
BAgMBkxJU0JPTjELMAkGA1UEBhMCUFQxHTAbBgkqhkiG9w0BCQEWDmNhQGV4YW1w
bGUuY29tMB4XDTI1MTEyNjIxMTg0N1oXDTI2MTEyNjIxMTg0N1owgYUxCzAJBgNV
BAYTAlBUMQ8wDQYDVQQIDAZMSVNCT04xDzANBgNVBAcMBkxJU0JPTjENMAsGA1UE
CgwEQVJNWTELMAkGA1UECwwCQU0xDDAKBgNVBAMMA0NNRDEqMCgGCSqGSIb3DQEJ
ARYbVE9NQVNSRUJPTE8yMDAxQEhPVE1BSUwuQ09NMFkwEwYHKoZIzj0CAQYIKoZI
zj0DAQcDQgAEtmSPfQjy1gHF1eVv5XLkKMS1M+zcrZhwyzfcIyfhSRhvjWIsKZGY
mdoU1U9YEZIBx9QHBRTO7fddx/nOY1645KOByzCByDAOBgNVHQ8BAf8EBAMCA4gw
HQYDVR0lBBYwFAYIKwYBBQUHAwEGCCsGAQUFBwMCMFcGA1UdEQRQME6HBAoKChSH
BAoKFBSHBAoKHhSHBKwSBtSHBKwSBv2HBKwSCBiHBKwSHKKHBKwSEa+HBKwSCNiH
BMCoATqHBMCoAfKHBKwSCOWHBKwQwcowHQYDVR0OBBYEFHykgzcCCqOuJmD0x8iM
QykICcvkMB8GA1UdIwQYMBaAFGWaNrGxn6t8cAY+TUIiC+/TGSNtMAoGCCqGSM49
BAMCA0cAMEQCIAIA7xVEwkELtSXFT2lL91XRyinp76MGNF2chMm7WlqiAiBTKCtb
5iue5vEy/2swYqm3DrR3uJf7ZLg2tfcGjv9QUQ==
-----END CERTIFICATE-----
